target datalayout = "e-m:e-p270:32:32-p271:32:32-p272:64:64-i64:64-i128:128-f80:128-n8:16:32:64-S128"
target triple = "x86_64-pc-linux-gnu"

; Function Attrs: alwaysinline nounwind willreturn memory(none) uwtable
define internal zeroext i8 @av_clip_uint8_c(i32 noundef %0) #6 {
  %2 = alloca i8, align 1
  %3 = alloca i32, align 4
  store i32 %0, ptr %3, align 4, !tbaa !30
  %4 = load i32, ptr %3, align 4, !tbaa !30
  %5 = and i32 %4, -256
  %6 = icmp ne i32 %5, 0
  br i1 %6, label %7, label %12

7:                                                ; preds = %1
  %8 = load i32, ptr %3, align 4, !tbaa !30
  %9 = xor i32 %8, -1
  %10 = ashr i32 %9, 31
  %11 = trunc i32 %10 to i8
  store i8 %11, ptr %2, align 1
  br label %15

12:                                               ; preds = %1
  %13 = load i32, ptr %3, align 4, !tbaa !30
  %14 = trunc i32 %13 to i8
  store i8 %14, ptr %2, align 1
  br label %15

15:                                               ; preds = %12, %7
  %16 = load i8, ptr %2, align 1
  ret i8 %16
}

; Function Attrs: nounwind uwtable
define internal void @yuv2planeX_8_c(ptr noundef %0, i32 noundef %1, ptr noundef %2, ptr noundef %3, i32 noundef %4, ptr noundef %5, i32 noundef %6) #4 {
  %8 = alloca ptr, align 8
  %9 = alloca i32, align 4
  %10 = alloca ptr, align 8
  %11 = alloca ptr, align 8
  %12 = alloca i32, align 4
  %13 = alloca ptr, align 8
  %14 = alloca i32, align 4
  %15 = alloca i32, align 4
  %16 = alloca i32, align 4
  %17 = alloca i32, align 4
  store ptr %0, ptr %8, align 8, !tbaa !45
  store i32 %1, ptr %9, align 4, !tbaa !30
  store ptr %2, ptr %10, align 8, !tbaa !47
  store ptr %3, ptr %11, align 8, !tbaa !46
  store i32 %4, ptr %12, align 4, !tbaa !30
  store ptr %5, ptr %13, align 8, !tbaa !46
  store i32 %6, ptr %14, align 4, !tbaa !30
  call void @llvm.lifetime.start.p0(i64 4, ptr %15) #8
  store i32 0, ptr %15, align 4, !tbaa !30
  br label %18

18:                                               ; preds = %68, %7
  %19 = load i32, ptr %15, align 4, !tbaa !30
  %20 = load i32, ptr %12, align 4, !tbaa !30
  %21 = icmp slt i32 %19, %20
  br i1 %21, label %22, label %71

22:                                               ; preds = %18
  call void @llvm.lifetime.start.p0(i64 4, ptr %16) #8
  %23 = load ptr, ptr %13, align 8, !tbaa !46
  %24 = load i32, ptr %15, align 4, !tbaa !30
  %25 = load i32, ptr %14, align 4, !tbaa !30
  %26 = add nsw i32 %24, %25
  %27 = and i32 %26, 7
  %28 = sext i32 %27 to i64
  %29 = getelementptr inbounds i8, ptr %23, i64 %28
  %30 = load i8, ptr %29, align 1, !tbaa !51
  %31 = zext i8 %30 to i32
  %32 = shl i32 %31, 12
  store i32 %32, ptr %16, align 4, !tbaa !30
  call void @llvm.lifetime.start.p0(i64 4, ptr %17) #8
  store i32 0, ptr %17, align 4, !tbaa !30
  br label %33

33:                                               ; preds = %57, %22
  %34 = load i32, ptr %17, align 4, !tbaa !30
  %35 = load i32, ptr %9, align 4, !tbaa !30
  %36 = icmp slt i32 %34, %35
  br i1 %36, label %37, label %60

37:                                               ; preds = %33
  %38 = load ptr, ptr %10, align 8, !tbaa !47
  %39 = load i32, ptr %17, align 4, !tbaa !30
  %40 = sext i32 %39 to i64
  %41 = getelementptr inbounds ptr, ptr %38, i64 %40
  %42 = load ptr, ptr %41, align 8, !tbaa !45
  %43 = load i32, ptr %15, align 4, !tbaa !30
  %44 = sext i32 %43 to i64
  %45 = getelementptr inbounds i16, ptr %42, i64 %44
  %46 = load i16, ptr %45, align 2, !tbaa !49
  %47 = sext i16 %46 to i32
  %48 = load ptr, ptr %8, align 8, !tbaa !45
  %49 = load i32, ptr %17, align 4, !tbaa !30
  %50 = sext i32 %49 to i64
  %51 = getelementptr inbounds i16, ptr %48, i64 %50
  %52 = load i16, ptr %51, align 2, !tbaa !49
  %53 = sext i16 %52 to i32
  %54 = mul nsw i32 %47, %53
  %55 = load i32, ptr %16, align 4, !tbaa !30
  %56 = add nsw i32 %55, %54
  store i32 %56, ptr %16, align 4, !tbaa !30
  br label %57

57:                                               ; preds = %37
  %58 = load i32, ptr %17, align 4, !tbaa !30
  %59 = add nsw i32 %58, 1
  store i32 %59, ptr %17, align 4, !tbaa !30
  br label %33, !llvm.loop !53

60:                                               ; preds = %33
  %61 = load i32, ptr %16, align 4, !tbaa !30
  %62 = ashr i32 %61, 19
  %63 = call zeroext i8 @av_clip_uint8_c(i32 noundef %62) #10
  %64 = load ptr, ptr %11, align 8, !tbaa !46
  %65 = load i32, ptr %15, align 4, !tbaa !30
  %66 = sext i32 %65 to i64
  %67 = getelementptr inbounds i8, ptr %64, i64 %66
  store i8 %63, ptr %67, align 1, !tbaa !51
  call void @llvm.lifetime.end.p0(i64 4, ptr %17) #8
  call void @llvm.lifetime.end.p0(i64 4, ptr %16) #8
  br label %68

68:                                               ; preds = %60
  %69 = load i32, ptr %15, align 4, !tbaa !30
  %70 = add nsw i32 %69, 1
  store i32 %70, ptr %15, align 4, !tbaa !30
  br label %18, !llvm.loop !54

71:                                               ; preds = %18
  call void @llvm.lifetime.end.p0(i64 4, ptr %15) #8
  ret void
}