; Function Attrs: nofree norecurse nosync nounwind memory(read, argmem: readwrite, inaccessiblemem: none) uwtable
define internal void @yuv2planeX_8_c(ptr noundef readonly captures(none) %0, i32 noundef %1, ptr noundef readonly captures(none) %2, ptr noundef writeonly captures(none) %3, i32 noundef %4, ptr noundef readonly captures(none) %5, i32 noundef %6) #3 {
  %8 = icmp sgt i32 %4, 0
  br i1 %8, label %.lr.ph23, label %._crit_edge24

.lr.ph23:                                         ; preds = %7
  %9 = icmp sgt i32 %1, 0
  %wide.trip.count35 = zext nneg i32 %4 to i64
  br i1 %9, label %.lr.ph.us.preheader, label %.lr.ph23.split

.lr.ph.us.preheader:                              ; preds = %.lr.ph23
  %wide.trip.count30 = zext nneg i32 %1 to i64
  br label %.lr.ph.us

.lr.ph.us:                                        ; preds = %.lr.ph.us.preheader, %._crit_edge.us
  %indvars.iv32 = phi i64 [ 0, %.lr.ph.us.preheader ], [ %indvars.iv.next33, %._crit_edge.us ]
  %10 = trunc i64 %indvars.iv32 to i32
  %11 = add i32 %6, %10
  %12 = and i32 %11, 7
  %13 = zext nneg i32 %12 to i64
  %14 = getelementptr inbounds nuw i8, ptr %5, i64 %13
  %15 = load i8, ptr %14, align 1, !tbaa !41
  %16 = zext i8 %15 to i32
  %17 = shl nuw nsw i32 %16, 12
  br label %18

18:                                               ; preds = %.lr.ph.us, %18
  %indvars.iv27 = phi i64 [ 0, %.lr.ph.us ], [ %indvars.iv.next28, %18 ]
  %.01719.us = phi i32 [ %17, %.lr.ph.us ], [ %28, %18 ]
  %19 = getelementptr inbounds nuw ptr, ptr %2, i64 %indvars.iv27
  %20 = load ptr, ptr %19, align 8, !tbaa !43
  %21 = getelementptr inbounds nuw i16, ptr %20, i64 %indvars.iv32
  %22 = load i16, ptr %21, align 2, !tbaa !39
  %23 = sext i16 %22 to i32
  %24 = getelementptr inbounds nuw i16, ptr %0, i64 %indvars.iv27
  %25 = load i16, ptr %24, align 2, !tbaa !39
  %26 = sext i16 %25 to i32
  %27 = mul nsw i32 %26, %23
  %28 = add nsw i32 %27, %.01719.us
  %indvars.iv.next28 = add nuw nsw i64 %indvars.iv27, 1
  %exitcond31.not = icmp eq i64 %indvars.iv.next28, %wide.trip.count30
  br i1 %exitcond31.not, label %._crit_edge.us, label %18, !llvm.loop !67

._crit_edge.us:                                   ; preds = %18
  %29 = ashr i32 %28, 19
  %.not.i.us = icmp ult i32 %29, 256
  %isnotneg.i.us = icmp sgt i32 %29, -1
  %30 = sext i1 %isnotneg.i.us to i8
  %31 = trunc nuw i32 %29 to i8
  %.0.i.us = select i1 %.not.i.us, i8 %31, i8 %30
  %32 = getelementptr inbounds nuw i8, ptr %3, i64 %indvars.iv32
  store i8 %.0.i.us, ptr %32, align 1, !tbaa !41
  %indvars.iv.next33 = add nuw nsw i64 %indvars.iv32, 1
  %exitcond36.not = icmp eq i64 %indvars.iv.next33, %wide.trip.count35
  br i1 %exitcond36.not, label %._crit_edge24, label %.lr.ph.us, !llvm.loop !68

.lr.ph23.split:                                   ; preds = %.lr.ph23, %.lr.ph23.split
  %indvars.iv = phi i64 [ %indvars.iv.next, %.lr.ph23.split ], [ 0, %.lr.ph23 ]
  %33 = trunc i64 %indvars.iv to i32
  %34 = add i32 %6, %33
  %35 = and i32 %34, 7
  %36 = zext nneg i32 %35 to i64
  %37 = getelementptr inbounds nuw i8, ptr %5, i64 %36
  %38 = load i8, ptr %37, align 1, !tbaa !41
  %39 = lshr i8 %38, 7
  %40 = getelementptr inbounds nuw i8, ptr %3, i64 %indvars.iv
  store i8 %39, ptr %40, align 1, !tbaa !41
  %indvars.iv.next = add nuw nsw i64 %indvars.iv, 1
  %exitcond.not = icmp eq i64 %indvars.iv.next, %wide.trip.count35
  br i1 %exitcond.not, label %._crit_edge24, label %.lr.ph23.split, !llvm.loop !68

._crit_edge24:                                    ; preds = %.lr.ph23.split, %._crit_edge.us, %7
  ret void
}